EXPORTS
    CalAnimationAction_Delete @1
    CalAnimationAction_Execute @2
    CalAnimationAction_New @3
    CalAnimationAction_Update @4
    CalAnimationCycle_Blend @5
    CalAnimationCycle_Delete @6
    CalAnimationCycle_New @7
    CalAnimationCycle_SetAsync @8
    CalAnimationCycle_Update @9
    CalAnimation_Delete @10
    CalAnimation_GetCoreAnimation @11
    CalAnimation_GetState @12
    CalAnimation_GetTime @13
    CalAnimation_GetType @14
    CalAnimation_GetWeight @15
    CalBone_BlendState @16
    CalBone_CalculateState @17
    CalBone_ClearState @18
    CalBone_Delete @19
    CalBone_GetCoreBone @20
    CalBone_GetRotation @21
    CalBone_GetRotationAbsolute @22
    CalBone_GetRotationBoneSpace @23
    CalBone_GetTranslation @24
    CalBone_GetTranslationAbsolute @25
    CalBone_GetTranslationBoneSpace @26
    CalBone_LockState @27
    CalBone_New @28
    CalBone_SetCoreState @29
    CalBone_SetCoreStateRecursive @30
    CalBone_SetRotation @31
    CalBone_SetSkeleton @32
    CalBone_SetTranslation @33
    CalCoreAnimation_AddCoreTrack @34
    CalCoreAnimation_Delete @35
    CalCoreAnimation_GetCoreTrack @36
    CalCoreAnimation_GetDuration @37
    CalCoreAnimation_SetDuration @38
    CalCoreBone_AddChildId @39
    CalCoreBone_CalculateState @40
    CalCoreBone_Delete @41
    CalCoreBone_GetName @42
    CalCoreBone_GetParentId @43
    CalCoreBone_GetRotation @44
    CalCoreBone_GetRotationAbsolute @45
    CalCoreBone_GetRotationBoneSpace @46
    CalCoreBone_GetTranslation @47
    CalCoreBone_GetTranslationAbsolute @48
    CalCoreBone_GetTranslationBoneSpace @49
    CalCoreBone_GetUserData @50
    CalCoreBone_New @51
    CalCoreBone_SetCoreSkeleton @52
    CalCoreBone_SetParentId @53
    CalCoreBone_SetRotation @54
    CalCoreBone_SetRotationBoneSpace @55
    CalCoreBone_SetTranslation @56
    CalCoreBone_SetTranslationBoneSpace @57
    CalCoreBone_SetUserData @58
    CalCoreKeyframe_Delete @59
    CalCoreKeyframe_GetRotation @60
    CalCoreKeyframe_GetTime @61
    CalCoreKeyframe_GetTranslation @62
    CalCoreKeyframe_New @63
    CalCoreKeyframe_SetRotation @64
    CalCoreKeyframe_SetTime @65
    CalCoreKeyframe_SetTranslation @66
    CalCoreMaterial_Delete @67
    CalCoreMaterial_GetMapCount @68
    CalCoreMaterial_GetMapFilename @69
    CalCoreMaterial_GetMapUserData @70
    CalCoreMaterial_GetShininess @71
    CalCoreMaterial_GetUserData @72
    CalCoreMaterial_New @73
    CalCoreMaterial_Reserve @74
    CalCoreMaterial_SetMapUserData @75
    CalCoreMaterial_SetShininess @76
    CalCoreMaterial_SetUserData @77
    CalCoreMesh_AddCoreSubmesh @78
    CalCoreMesh_Delete @79
    CalCoreMesh_GetCoreSubmesh @80
    CalCoreMesh_GetCoreSubmeshCount @81
    CalCoreMesh_New @82
    CalCoreModel_AddCoreAnimation @83
    CalCoreModel_AddCoreMaterial @84
    CalCoreModel_AddCoreMesh @85
    CalCoreModel_CreateCoreMaterialThread @86
    CalCoreModel_Delete @87
    CalCoreModel_GetCoreAnimation @88
    CalCoreModel_GetCoreAnimationCount @89
    CalCoreModel_GetCoreMaterial @90
    CalCoreModel_GetCoreMaterialCount @91
    CalCoreModel_GetCoreMaterialId @92
    CalCoreModel_GetCoreMesh @93
    CalCoreModel_GetCoreMeshCount @94
    CalCoreModel_GetCoreSkeleton @95
    CalCoreModel_GetUserData @96
    CalCoreModel_LoadCoreAnimation @97
    CalCoreModel_LoadCoreMaterial @98
    CalCoreModel_LoadCoreMesh @99
    CalCoreModel_LoadCoreSkeleton @100
    CalCoreModel_New @101
    CalCoreModel_SaveCoreAnimation @102
    CalCoreModel_SaveCoreMaterial @103
    CalCoreModel_SaveCoreMesh @104
    CalCoreModel_SaveCoreSkeleton @105
    CalCoreModel_SetCoreMaterialId @106
    CalCoreModel_SetCoreSkeleton @107
    CalCoreModel_SetUserData @108
    CalCoreSkeleton_AddCoreBone @109
    CalCoreSkeleton_CalculateState @110
    CalCoreSkeleton_Delete @111
    CalCoreSkeleton_GetCoreBone @112
    CalCoreSkeleton_GetCoreBoneId @113
    CalCoreSkeleton_New @114
    CalCoreSubmesh_Delete @115
    CalCoreSubmesh_EnableTangents @116
    CalCoreSubmesh_GetCoreMaterialThreadId @117
    CalCoreSubmesh_GetFaceCount @118
    CalCoreSubmesh_GetLodCount @119
    CalCoreSubmesh_GetSpringCount @120
    CalCoreSubmesh_GetVertexCount @121
    CalCoreSubmesh_IsTangentsEnabled @122
    CalCoreSubmesh_New @123
    CalCoreSubmesh_Reserve @124
    CalCoreSubmesh_SetCoreMaterialThreadId @125
    CalCoreSubmesh_SetLodCount @126
    CalCoreTrack_AddCoreKeyframe @127
    CalCoreTrack_Delete @128
    CalCoreTrack_GetCoreBoneId @129
    CalCoreTrack_GetState @130
    CalCoreTrack_New @131
    CalCoreTrack_SetCoreBoneId @132
    CalError_GetLastErrorCode @133
    CalError_GetLastErrorDescription @134
    CalError_GetLastErrorFile @135
    CalError_GetLastErrorLine @136
    CalError_GetLastErrorText @137
    CalError_PrintLastError @138
    CalLoader_Delete @139
    CalLoader_LoadCoreAnimation @140
    CalLoader_LoadCoreMaterial @141
    CalLoader_LoadCoreMesh @142
    CalLoader_LoadCoreSkeleton @143
    CalLoader_New @144
    CalMesh_Delete @145
    CalMesh_GetCoreMesh @146
    CalMesh_GetSubmesh @147
    CalMesh_GetSubmeshCount @148
    CalMesh_New @149
    CalMesh_SetLodLevel @150
    CalMesh_SetMaterialSet @151
    CalMesh_SetModel @152
    CalMixer_BlendCycle @153
    CalMixer_ClearCycle @154
    CalMixer_Delete @155
    CalMixer_ExecuteAction @156
    CalMixer_New @157
    CalMixer_UpdateAnimation @158
    CalMixer_UpdateSkeleton @159
    CalModel_AttachMesh @160
    CalModel_Delete @161
    CalModel_DetachMesh @162
    CalModel_GetCoreModel @163
    CalModel_GetMesh @164
    CalModel_GetMixer @165
    CalModel_GetPhysique @166
    CalModel_GetRenderer @167
    CalModel_GetSkeleton @168
    CalModel_GetSpringSystem @169
    CalModel_GetUserData @170
    CalModel_New @171
    CalModel_SetLodLevel @172
    CalModel_SetMaterialSet @173
    CalModel_SetUserData @174
    CalModel_Update @175
    CalPhysique_CalculateNormals @176
    CalPhysique_CalculateTangentSpaces @177
    CalPhysique_CalculateVertices @178
    CalPhysique_CalculateVerticesAndNormals @179
    CalPhysique_CalculateVerticesNormalsAndTexCoords @180
    CalPhysique_Delete @181
    CalPhysique_New @182
    CalPhysique_Update @183
    CalQuaternion_Blend @184
    CalQuaternion_Clear @185
    CalQuaternion_Conjugate @186
    CalQuaternion_Delete @187
    CalQuaternion_Equal @188
    CalQuaternion_Get @189
    CalQuaternion_Multiply @190
    CalQuaternion_MultiplyVector @191
    CalQuaternion_New @192
    CalQuaternion_Op_Multiply @193
    CalQuaternion_Set @194
    CalRenderer_BeginRendering @195
    CalRenderer_Delete @196
    CalRenderer_EndRendering @197
    CalRenderer_GetAmbientColor @198
    CalRenderer_GetDiffuseColor @199
    CalRenderer_GetFaceCount @200
    CalRenderer_GetFaces @201
    CalRenderer_GetMapCount @202
    CalRenderer_GetMapUserData @203
    CalRenderer_GetMeshCount @204
    CalRenderer_GetNormals @205
    CalRenderer_GetShininess @206
    CalRenderer_GetSpecularColor @207
    CalRenderer_GetSubmeshCount @208
    CalRenderer_GetTangentSpaces @209
    CalRenderer_GetTextureCoordinates @210
    CalRenderer_GetVertexCount @211
    CalRenderer_GetVertices @212
    CalRenderer_GetVerticesAndNormals @213
    CalRenderer_GetVerticesNormalsAndTexCoords @214
    CalRenderer_IsTangentsEnabled @215
    CalRenderer_New @216
    CalRenderer_SelectMeshSubmesh @217
    CalSaver_Delete @218
    CalSaver_New @219
    CalSaver_SaveCoreAnimation @220
    CalSaver_SaveCoreMaterial @221
    CalSaver_SaveCoreMesh @222
    CalSaver_SaveCoreSkeleton @223
    CalSkeleton_CalculateState @224
    CalSkeleton_ClearState @225
    CalSkeleton_Delete @226
    CalSkeleton_GetBone @227
    CalSkeleton_GetBoneLines @228
    CalSkeleton_GetBoneLinesStatic @229
    CalSkeleton_GetBonePoints @230
    CalSkeleton_GetBonePointsStatic @231
    CalSkeleton_GetCoreSkeleton @232
    CalSkeleton_LockState @233
    CalSkeleton_New @234
    CalSpringSystem_CalculateForces @235
    CalSpringSystem_CalculateVertices @236
    CalSpringSystem_Delete @237
    CalSpringSystem_New @238
    CalSpringSystem_Update @239
    CalSubmesh_Delete @240
    CalSubmesh_GetCoreMaterialId @241
    CalSubmesh_GetCoreSubmesh @242
    CalSubmesh_GetFaceCount @243
    CalSubmesh_GetFaces @244
    CalSubmesh_GetVertexCount @245
    CalSubmesh_HasInternalData @246
    CalSubmesh_New @247
    CalSubmesh_SetCoreMaterialId @248
    CalSubmesh_SetLodLevel @249
    CalVector_Add @250
    CalVector_Blend @251
    CalVector_CalVector_Op_InverseScale @252
    CalVector_CalVector_Op_Scale @253
    CalVector_Clear @254
    CalVector_Delete @255
    CalVector_Equal @256
    CalVector_Get @257
    CalVector_InverseScale @258
    CalVector_Length @259
    CalVector_New @260
    CalVector_Normalize @261
    CalVector_Op_Add @262
    CalVector_Op_Cross @263
    CalVector_Op_Scalar @264
    CalVector_Op_Subtract @265
    CalVector_Scale @266
    CalVector_Set @267
    CalVector_Subtract @268
    CalVector_Transform @269
    _Z20CalCoreAnimation_NewP16CalCoreAnimation @270
    _Z21CalError_SetLastError12CalErrorCodePciS0_ @271
    _ZN10CalSubmesh11setLodLevelEf @272
    _ZN10CalSubmesh12getFaceCountEv @273
    _ZN10CalSubmesh13getBaseWeightEv @274
    _ZN10CalSubmesh14enableTangentsEib @275
    _ZN10CalSubmesh14getCoreSubmeshEv @276
    _ZN10CalSubmesh14getVertexCountEv @277
    _ZN10CalSubmesh15getVectorNormalEv @278
    _ZN10CalSubmesh15getVectorVertexEv @279
    _ZN10CalSubmesh15hasInternalDataEv @280
    _ZN10CalSubmesh17getCoreMaterialIdEv @281
    _ZN10CalSubmesh17isTangentsEnabledEi @282
    _ZN10CalSubmesh17setCoreMaterialIdEi @283
    _ZN10CalSubmesh19disableInternalDataEv @284
    _ZN10CalSubmesh20getMorphTargetWeightEi @285
    _ZN10CalSubmesh20setMorphTargetWeightEif @286
    _ZN10CalSubmesh25getMorphTargetWeightCountEv @287
    _ZN10CalSubmesh25getVectorPhysicalPropertyEv @288
    _ZN10CalSubmesh26getVectorMorphTargetWeightEv @289
    _ZN10CalSubmesh27getVectorVectorTangentSpaceEv @290
    _ZN10CalSubmesh8getFacesEPi @291
    _ZN10CalSubmeshC1EP14CalCoreSubmesh @292
    _ZN10CalSubmeshC2EP14CalCoreSubmesh @293
    _ZN11CalCoreBone10addChildIdEi @294
    _ZN11CalCoreBone11getParentIdEv @295
    _ZN11CalCoreBone11getRotationEv @296
    _ZN11CalCoreBone11getUserDataEv @297
    _ZN11CalCoreBone11setParentIdEi @298
    _ZN11CalCoreBone11setRotationERK13CalQuaternion @299
    _ZN11CalCoreBone11setUserDataEPv @300
    _ZN11CalCoreBone14calculateStateEv @301
    _ZN11CalCoreBone14getBoundingBoxEv @302
    _ZN11CalCoreBone14getListChildIdEv @303
    _ZN11CalCoreBone14getTranslationEv @304
    _ZN11CalCoreBone14setTranslationERK9CalVector @305
    _ZN11CalCoreBone15getBoundingDataEiR9CalVector @306
    _ZN11CalCoreBone15getCoreSkeletonEv @307
    _ZN11CalCoreBone15setCoreSkeletonEP15CalCoreSkeleton @308
    _ZN11CalCoreBone19getRotationAbsoluteEv @309
    _ZN11CalCoreBone20calculateBoundingBoxEP12CalCoreModel @310
    _ZN11CalCoreBone20getRotationBoneSpaceEv @311
    _ZN11CalCoreBone20setRotationBoneSpaceERK13CalQuaternion @312
    _ZN11CalCoreBone22getTranslationAbsoluteEv @313
    _ZN11CalCoreBone23getTranslationBoneSpaceEv @314
    _ZN11CalCoreBone23setTranslationBoneSpaceERK9CalVector @315
    _ZN11CalCoreBone24isBoundingBoxPrecomputedEv @316
    _ZN11CalCoreBone5scaleEf @317
    _ZN11CalCoreBone7getNameEv @318
    _ZN11CalCoreBoneC1ERKSs @319
    _ZN11CalCoreBoneC2ERKSs @320
    _ZN11CalCoreMesh11getFilenameEv @321
    _ZN11CalCoreMesh11setFilenameERKSs @322
    _ZN11CalCoreMesh14addCoreSubmeshEP14CalCoreSubmesh @323
    _ZN11CalCoreMesh14getCoreSubmeshEi @324
    _ZN11CalCoreMesh16addAsMorphTargetEPS_ @325
    _ZN11CalCoreMesh19getCoreSubmeshCountEv @326
    _ZN11CalCoreMesh20getVectorCoreSubmeshEv @327
    _ZN11CalCoreMesh5scaleEf @328
    _ZN11CalCoreMesh6decRefEv @329
    _ZN11CalCoreMesh6incRefEv @330
    _ZN11CalCoreMesh7getNameEv @331
    _ZN11CalCoreMesh7setNameERKSs @332
    _ZN11CalCoreMeshC1Ev @333
    _ZN11CalCoreMeshC2Ev @334
    _ZN11CalCoreMeshD1Ev @335
    _ZN11CalCoreMeshD2Ev @336
    _ZN11CalPhysique15calculateVertexEP10CalSubmeshi @337
    _ZN11CalPhysique16calculateNormalsEP10CalSubmeshPfi @338
    _ZN11CalPhysique16setNormalizationEb @339
    _ZN11CalPhysique17calculateVerticesEP10CalSubmeshPfi @340
    _ZN11CalPhysique22calculateTangentSpacesEP10CalSubmeshiPfi @341
    _ZN11CalPhysique27calculateVerticesAndNormalsEP10CalSubmeshPfi @342
    _ZN11CalPhysique36calculateVerticesNormalsAndTexCoordsEP10CalSubmeshPfi @343
    _ZN11CalPhysique6updateEv @344
    _ZN11CalPhysiqueC1EP8CalModel @345
    _ZN11CalPhysiqueC2EP8CalModel @346
    _ZN11CalPlatform10readStringEPcRSs @347
    _ZN11CalPlatform10readStringERSiRSs @348
    _ZN11CalPlatform10writeBytesERSoPKvi @349
    _ZN11CalPlatform10writeFloatERSof @350
    _ZN11CalPlatform11readIntegerEPcRi @351
    _ZN11CalPlatform11readIntegerERSiRi @352
    _ZN11CalPlatform11writeStringERSoRKSs @353
    _ZN11CalPlatform12writeIntegerERSoi @354
    _ZN11CalPlatform9readBytesEPcPvi @355
    _ZN11CalPlatform9readBytesERSiPvi @356
    _ZN11CalPlatform9readFloatEPcRf @357
    _ZN11CalPlatform9readFloatERSiRf @358
    _ZN11CalPlatformC1Ev @359
    _ZN11CalPlatformC2Ev @360
    _ZN11CalPlatformD0Ev @361
    _ZN11CalPlatformD1Ev @362
    _ZN11CalPlatformD2Ev @363
    _ZN11CalRenderer10getNormalsEPfi @364
    _ZN11CalRenderer11getMapCountEv @365
    _ZN11CalRenderer11getVerticesEPfi @366
    _ZN11CalRenderer12endRenderingEv @367
    _ZN11CalRenderer12getFaceCountEv @368
    _ZN11CalRenderer12getMeshCountEv @369
    _ZN11CalRenderer12getShininessEv @370
    _ZN11CalRenderer14beginRenderingEv @371
    _ZN11CalRenderer14getMapUserDataEi @372
    _ZN11CalRenderer14getVertexCountEv @373
    _ZN11CalRenderer15getAmbientColorEPh @374
    _ZN11CalRenderer15getDiffuseColorEPh @375
    _ZN11CalRenderer15getSubmeshCountEi @376
    _ZN11CalRenderer16getSpecularColorEPh @377
    _ZN11CalRenderer16getTangentSpacesEiPfi @378
    _ZN11CalRenderer16setNormalizationEb @379
    _ZN11CalRenderer17isTangentsEnabledEi @380
    _ZN11CalRenderer17selectMeshSubmeshEii @381
    _ZN11CalRenderer21getTextureCoordinatesEiPfi @382
    _ZN11CalRenderer21getVerticesAndNormalsEPfi @383
    _ZN11CalRenderer30getVerticesNormalsAndTexCoordsEPfi @384
    _ZN11CalRenderer8getFacesEPi @385
    _ZN11CalRendererC1EP8CalModel @386
    _ZN11CalRendererC1EPS_ @387
    _ZN11CalRendererC2EP8CalModel @388
    _ZN11CalRendererC2EPS_ @389
    _ZN11CalSkeleton10clearStateEv @390
    _ZN11CalSkeleton12getBoneLinesEPf @391
    _ZN11CalSkeleton13getBonePointsEPf @392
    _ZN11CalSkeleton13getVectorBoneEv @393
    _ZN11CalSkeleton14calculateStateEv @394
    _ZN11CalSkeleton18getBoneBoundingBoxEPfS0_ @395
    _ZN11CalSkeleton18getBoneLinesStaticEPf @396
    _ZN11CalSkeleton19getBonePointsStaticEPf @397
    _ZN11CalSkeleton22calculateBoundingBoxesEv @398
    _ZN11CalSkeleton9lockStateEv @399
    _ZN11CalSkeletonC1EP15CalCoreSkeleton @400
    _ZN11CalSkeletonC2EP15CalCoreSkeleton @401
    _ZN11CalSkeletonD1Ev @402
    _ZN11CalSkeletonD2Ev @403
    _ZN12CalAnimation13getTimeFactorEv @404
    _ZN12CalAnimation13setTimeFactorEf @405
    _ZN12CalAnimation14checkCallbacksEfP8CalModel @406
    _ZN12CalAnimation16getCoreAnimationEv @407
    _ZN12CalAnimation17completeCallbacksEP8CalModel @408
    _ZN12CalAnimation7getTimeEv @409
    _ZN12CalAnimation7getTypeEv @410
    _ZN12CalAnimation7setTimeEf @411
    _ZN12CalAnimation8getStateEv @412
    _ZN12CalAnimation9getWeightEv @413
    _ZN12CalAnimationC1EP16CalCoreAnimation @414
    _ZN12CalAnimationC2EP16CalCoreAnimation @415
    _ZN12CalAnimationD0Ev @416
    _ZN12CalAnimationD1Ev @417
    _ZN12CalCoreModel11addBoneNameERKSsi @418
    _ZN12CalCoreModel11addCoreMeshEP11CalCoreMesh @419
    _ZN12CalCoreModel11addMeshNameERKSsi @420
    _ZN12CalCoreModel11getCoreMeshEi @421
    _ZN12CalCoreModel11getUserDataEv @422
    _ZN12CalCoreModel11setUserDataEPv @423
    _ZN12CalCoreModel12loadCoreMeshERKSs @424
    _ZN12CalCoreModel12loadCoreMeshERKSsS1_ @425
    _ZN12CalCoreModel12saveCoreMeshERKSsi @426
    _ZN12CalCoreModel13getCoreMeshIdERKSs @427
    _ZN12CalCoreModel14unloadCoreMeshERKSs @428
    _ZN12CalCoreModel14unloadCoreMeshEi @429
    _ZN12CalCoreModel15addCoreMaterialEP15CalCoreMaterial @430
    _ZN12CalCoreModel15addMaterialNameERKSsi @431
    _ZN12CalCoreModel15getCoreMaterialEi @432
    _ZN12CalCoreModel15getCoreSkeletonEv @433
    _ZN12CalCoreModel15setCoreSkeletonEP15CalCoreSkeleton @434
    _ZN12CalCoreModel16addAnimationNameERKSsi @435
    _ZN12CalCoreModel16addCoreAnimationEP16CalCoreAnimation @436
    _ZN12CalCoreModel16getCoreAnimationEi @437
    _ZN12CalCoreModel16getCoreMeshCountEv @438
    _ZN12CalCoreModel16loadCoreMaterialERKSs @439
    _ZN12CalCoreModel16loadCoreMaterialERKSsS1_ @440
    _ZN12CalCoreModel16loadCoreSkeletonERKSs @441
    _ZN12CalCoreModel16saveCoreMaterialERKSsi @442
    _ZN12CalCoreModel16saveCoreSkeletonERKSs @443
    _ZN12CalCoreModel17getCoreMaterialIdERKSs @444
    _ZN12CalCoreModel17getCoreMaterialIdEii @445
    _ZN12CalCoreModel17loadCoreAnimationERKSs @446
    _ZN12CalCoreModel17loadCoreAnimationERKSsS1_ @447
    _ZN12CalCoreModel17saveCoreAnimationERKSsi @448
    _ZN12CalCoreModel17setCoreMaterialIdEiii @449
    _ZN12CalCoreModel18getCoreAnimationIdERKSs @450
    _ZN12CalCoreModel18unloadCoreMaterialERKSs @451
    _ZN12CalCoreModel18unloadCoreMaterialEi @452
    _ZN12CalCoreModel19unloadCoreAnimationERKSs @453
    _ZN12CalCoreModel19unloadCoreAnimationEi @454
    _ZN12CalCoreModel20getCoreMaterialCountEv @455
    _ZN12CalCoreModel21addCoreMorphAnimationEP21CalCoreMorphAnimation @456
    _ZN12CalCoreModel21getCoreAnimationCountEv @457
    _ZN12CalCoreModel21getCoreMorphAnimationEi @458
    _ZN12CalCoreModel24createCoreMaterialThreadEi @459
    _ZN12CalCoreModel26getCoreMorphAnimationCountEv @460
    _ZN12CalCoreModel5scaleEf @461
    _ZN12CalCoreModel9getBoneIdERKSs @462
    _ZN12CalCoreModelC1ERKSs @463
    _ZN12CalCoreModelC2ERKSs @464
    _ZN12CalCoreModelD1Ev @465
    _ZN12CalCoreModelD2Ev @466
    _ZN12CalCoreTrack13getCoreBoneIdEv @467
    _ZN12CalCoreTrack13getUpperBoundEf @468
    _ZN12CalCoreTrack13setCoreBoneIdEi @469
    _ZN12CalCoreTrack15addCoreKeyframeEP15CalCoreKeyframe @470
    _ZN12CalCoreTrack15getCoreKeyframeEi @471
    _ZN12CalCoreTrack20getCoreKeyframeCountEv @472
    _ZN12CalCoreTrack5scaleEf @473
    _ZN12CalCoreTrack8getStateEfR9CalVectorR13CalQuaternion @474
    _ZN12CalCoreTrackC1Ev @475
    _ZN12CalCoreTrackC2Ev @476
    _ZN12CalCoreTrackD1Ev @477
    _ZN12CalCoreTrackD2Ev @478
    _ZN12TiXmlComment5ParseEPKcP16TiXmlParsingData @479
    _ZN12TiXmlComment8StreamInEPSiPSs @480
    _ZN12TiXmlCommentD0Ev @481
    _ZN12TiXmlCommentD1Ev @482
    _ZN12TiXmlElement12SetAttributeEPKcS1_ @483
    _ZN12TiXmlElement12SetAttributeEPKci @484
    _ZN12TiXmlElement15RemoveAttributeEPKc @485
    _ZN12TiXmlElement5ParseEPKcP16TiXmlParsingData @486
    _ZN12TiXmlElement8StreamInEPSiPSs @487
    _ZN12TiXmlElement9ReadValueEPKcP16TiXmlParsingData @488
    _ZN12TiXmlElementC1EPKc @489
    _ZN12TiXmlElementC2EPKc @490
    _ZN12TiXmlElementD0Ev @491
    _ZN12TiXmlElementD1Ev @492
    _ZN12TiXmlElementD2Ev @493
    _ZN12TiXmlUnknown5ParseEPKcP16TiXmlParsingData @494
    _ZN12TiXmlUnknown8StreamInEPSiPSs @495
    _ZN12TiXmlUnknownD0Ev @496
    _ZN12TiXmlUnknownD1Ev @497
    _ZN13TiXmlDocument5ParseEPKcP16TiXmlParsingData @498
    _ZN13TiXmlDocument8LoadFileEPKc @499
    _ZN13TiXmlDocument8LoadFileEv @500
    _ZN13TiXmlDocument8SetErrorEiPKcP16TiXmlParsingData @501
    _ZN13TiXmlDocument8StreamInEPSiPSs @502
    _ZN13TiXmlDocumentC1EPKc @503
    _ZN13TiXmlDocumentC1Ev @504
    _ZN13TiXmlDocumentC2EPKc @505
    _ZN13TiXmlDocumentC2Ev @506
    _ZN13TiXmlDocumentD0Ev @507
    _ZN13TiXmlDocumentD1Ev @508
    _ZN14CalBoundingBox13computePointsEP9CalVector @509
    _ZN14CalCoreSubmesh11getLodCountEv @510
    _ZN14CalCoreSubmesh11setLodCountEi @511
    _ZN14CalCoreSubmesh12getFaceCountEv @512
    _ZN14CalCoreSubmesh13getVectorFaceEv @513
    _ZN14CalCoreSubmesh14enableTangentsEib @514
    _ZN14CalCoreSubmesh14getSpringCountEv @515
    _ZN14CalCoreSubmesh14getVertexCountEv @516
    _ZN14CalCoreSubmesh15getVectorSpringEv @517
    _ZN14CalCoreSubmesh15getVectorVertexEv @518
    _ZN14CalCoreSubmesh15setTangentSpaceEiiRK9CalVectorf @519
    _ZN14CalCoreSubmesh17isTangentsEnabledEi @520
    _ZN14CalCoreSubmesh19UpdateTangentVectorEiiii @521
    _ZN14CalCoreSubmesh19setPhysicalPropertyEiRKNS_16PhysicalPropertyE @522
    _ZN14CalCoreSubmesh20setTextureCoordinateEiiRKNS_17TextureCoordinateE @523
    _ZN14CalCoreSubmesh21addCoreSubMorphTargetEP21CalCoreSubMorphTarget @524
    _ZN14CalCoreSubmesh21getCoreSubMorphTargetEi @525
    _ZN14CalCoreSubmesh23getCoreMaterialThreadIdEv @526
    _ZN14CalCoreSubmesh23setCoreMaterialThreadIdEi @527
    _ZN14CalCoreSubmesh25getVectorPhysicalPropertyEv @528
    _ZN14CalCoreSubmesh26getCoreSubMorphTargetCountEv @529
    _ZN14CalCoreSubmesh27getVectorCoreSubMorphTargetEv @530
    _ZN14CalCoreSubmesh27getVectorVectorTangentSpaceEv @531
    _ZN14CalCoreSubmesh32getVectorVectorTextureCoordinateEv @532
    _ZN14CalCoreSubmesh5scaleEf @533
    _ZN14CalCoreSubmesh7reserveEiiii @534
    _ZN14CalCoreSubmesh7setFaceEiRKNS_4FaceE @535
    _ZN14CalCoreSubmesh9setSpringEiRKNS_6SpringE @536
    _ZN14CalCoreSubmesh9setVertexEiRKNS_6VertexE @537
    _ZN14CalCoreSubmeshC1Ev @538
    _ZN14CalCoreSubmeshC2Ev @539
    _ZN14CalCoreSubmeshD1Ev @540
    _ZN14CalCoreSubmeshD2Ev @541
    _ZN14TiXmlAttribute11SetIntValueEi @542
    _ZN14TiXmlAttribute14SetDoubleValueEd @543
    _ZN14TiXmlAttribute5ParseEPKcP16TiXmlParsingData @544
    _ZN14TiXmlAttributeD0Ev @545
    _ZN14TiXmlAttributeD1Ev @546
    _ZN15CalBufferSource10readStringERSs @547
    _ZN15CalBufferSource11readIntegerERi @548
    _ZN15CalBufferSource9readBytesEPvi @549
    _ZN15CalBufferSource9readFloatERf @550
    _ZN15CalBufferSourceC1EPv @551
    _ZN15CalBufferSourceC2EPv @552
    _ZN15CalBufferSourceD0Ev @553
    _ZN15CalBufferSourceD1Ev @554
    _ZN15CalBufferSourceD2Ev @555
    _ZN15CalCoreKeyframe11getRotationEv @556
    _ZN15CalCoreKeyframe11setRotationERK13CalQuaternion @557
    _ZN15CalCoreKeyframe14getTranslationEv @558
    _ZN15CalCoreKeyframe14setTranslationERK9CalVector @559
    _ZN15CalCoreKeyframe7getTimeEv @560
    _ZN15CalCoreKeyframe7setTimeEf @561
    _ZN15CalCoreKeyframeC1Ev @562
    _ZN15CalCoreKeyframeC2Ev @563
    _ZN15CalCoreMaterial11getFilenameEv @564
    _ZN15CalCoreMaterial11getMapCountEv @565
    _ZN15CalCoreMaterial11getUserDataEv @566
    _ZN15CalCoreMaterial11setFilenameERKSs @567
    _ZN15CalCoreMaterial11setUserDataEPv @568
    _ZN15CalCoreMaterial12getShininessEv @569
    _ZN15CalCoreMaterial12getVectorMapEv @570
    _ZN15CalCoreMaterial12setShininessEf @571
    _ZN15CalCoreMaterial14getMapFilenameEi @572
    _ZN15CalCoreMaterial14getMapUserDataEi @573
    _ZN15CalCoreMaterial14setMapUserDataEiPv @574
    _ZN15CalCoreMaterial15getAmbientColorEv @575
    _ZN15CalCoreMaterial15getDiffuseColorEv @576
    _ZN15CalCoreMaterial15setAmbientColorERKNS_5ColorE @577
    _ZN15CalCoreMaterial15setDiffuseColorERKNS_5ColorE @578
    _ZN15CalCoreMaterial16getSpecularColorEv @579
    _ZN15CalCoreMaterial16setSpecularColorERKNS_5ColorE @580
    _ZN15CalCoreMaterial6decRefEv @581
    _ZN15CalCoreMaterial6incRefEv @582
    _ZN15CalCoreMaterial6setMapEiRKNS_3MapE @583
    _ZN15CalCoreMaterial7getNameEv @584
    _ZN15CalCoreMaterial7reserveEi @585
    _ZN15CalCoreMaterial7setNameERKSs @586
    _ZN15CalCoreMaterialC1Ev @587
    _ZN15CalCoreMaterialC2Ev @588
    _ZN15CalCoreSkeleton11addCoreBoneEP11CalCoreBone @589
    _ZN15CalCoreSkeleton11getCoreBoneERKSs @590
    _ZN15CalCoreSkeleton11getCoreBoneEi @591
    _ZN15CalCoreSkeleton13getCoreBoneIdERKSs @592
    _ZN15CalCoreSkeleton14calculateStateEv @593
    _ZN15CalCoreSkeleton15mapCoreBoneNameEiRKSs @594
    _ZN15CalCoreSkeleton17getVectorCoreBoneEv @595
    _ZN15CalCoreSkeleton21getListRootCoreBoneIdEv @596
    _ZN15CalCoreSkeleton22calculateBoundingBoxesEP12CalCoreModel @597
    _ZN15CalCoreSkeleton5scaleEf @598
    _ZN15CalCoreSkeleton6decRefEv @599
    _ZN15CalCoreSkeleton6incRefEv @600
    _ZN15CalCoreSkeletonC1Ev @601
    _ZN15CalCoreSkeletonC2Ev @602
    _ZN15CalCoreSkeletonD1Ev @603
    _ZN15CalCoreSkeletonD2Ev @604
    _ZN15CalSpringSystem14getForceVectorEv @605
    _ZN15CalSpringSystem14setForceVectorERK9CalVector @606
    _ZN15CalSpringSystem15calculateForcesEP10CalSubmeshf @607
    _ZN15CalSpringSystem16getGravityVectorEv @608
    _ZN15CalSpringSystem16setGravityVectorERK9CalVector @609
    _ZN15CalSpringSystem17calculateVerticesEP10CalSubmeshf @610
    _ZN15CalSpringSystem21setCollisionDetectionEb @611
    _ZN15CalSpringSystem6updateEf @612
    _ZN15CalSpringSystemC1EP8CalModel @613
    _ZN15CalSpringSystemC2EP8CalModel @614
    _ZN15CalStreamSource10readStringERSs @615
    _ZN15CalStreamSource11readIntegerERi @616
    _ZN15CalStreamSource9readBytesEPvi @617
    _ZN15CalStreamSource9readFloatERf @618
    _ZN15CalStreamSourceC1ERSi @619
    _ZN15CalStreamSourceC2ERSi @620
    _ZN15CalStreamSourceD0Ev @621
    _ZN15CalStreamSourceD1Ev @622
    _ZN15CalStreamSourceD2Ev @623
    _ZN16CalAbstractMixer14isDefaultMixerEv @624
    _ZN16CalAbstractMixerD0Ev @625
    _ZN16CalAbstractMixerD1Ev @626
    _ZN16CalCoreAnimation11getDurationEv @627
    _ZN16CalCoreAnimation11getFilenameEv @628
    _ZN16CalCoreAnimation11setDurationEf @629
    _ZN16CalCoreAnimation11setFilenameERKSs @630
    _ZN16CalCoreAnimation12addCoreTrackEP12CalCoreTrack @631
    _ZN16CalCoreAnimation12getCoreTrackEi @632
    _ZN16CalCoreAnimation14removeCallbackEP20CalAnimationCallback @633
    _ZN16CalCoreAnimation16getListCoreTrackEv @634
    _ZN16CalCoreAnimation16registerCallbackEP20CalAnimationCallbackf @635
    _ZN16CalCoreAnimation5scaleEf @636
    _ZN16CalCoreAnimation6decRefEv @637
    _ZN16CalCoreAnimation6incRefEv @638
    _ZN16CalCoreAnimation7getNameEv @639
    _ZN16CalCoreAnimation7setNameERKSs @640
    _ZN16CalCoreAnimationC1Ev @641
    _ZN16CalCoreAnimationC2Ev @642
    _ZN16CalCoreAnimationD1Ev @643
    _ZN16CalCoreAnimationD2Ev @644
    _ZN16CalHardwareModel10canAddFaceERNS_15CalHardwareMeshERN14CalCoreSubmesh4FaceERSt6vectorINS2_6VertexESaIS6_EEi @645
    _ZN16CalHardwareModel12getBoneCountEv @646
    _ZN16CalHardwareModel12getFaceCountEv @647
    _ZN16CalHardwareModel12getShininessEv @648
    _ZN16CalHardwareModel13addBoneIndiceERNS_15CalHardwareMeshEii @649
    _ZN16CalHardwareModel13getStartIndexEv @650
    _ZN16CalHardwareModel14getMapUserDataEi @651
    _ZN16CalHardwareModel14getVertexCountEv @652
    _ZN16CalHardwareModel14setCoreMeshIdsERKSt6vectorIiSaIiEE @653
    _ZN16CalHardwareModel14setIndexBufferEPi @654
    _ZN16CalHardwareModel15getAmbientColorEPh @655
    _ZN16CalHardwareModel15getDiffuseColorEPh @656
    _ZN16CalHardwareModel15setNormalBufferEPci @657
    _ZN16CalHardwareModel15setVertexBufferEPci @658
    _ZN16CalHardwareModel15setWeightBufferEPci @659
    _ZN16CalHardwareModel16getSpecularColorEPh @660
    _ZN16CalHardwareModel17getTotalFaceCountEv @661
    _ZN16CalHardwareModel18getBaseVertexIndexEv @662
    _ZN16CalHardwareModel18selectHardwareMeshEj @663
    _ZN16CalHardwareModel18setTextureCoordNumEi @664
    _ZN16CalHardwareModel19getTotalVertexCountEv @665
    _ZN16CalHardwareModel20getHardwareMeshCountEv @666
    _ZN16CalHardwareModel20getRotationBoneSpaceEiP11CalSkeleton @667
    _ZN16CalHardwareModel20setMatrixIndexBufferEPci @668
    _ZN16CalHardwareModel21getVectorHardwareMeshEv @669
    _ZN16CalHardwareModel21setTangentSpaceBufferEiPci @670
    _ZN16CalHardwareModel21setTextureCoordBufferEiPci @671
    _ZN16CalHardwareModel23getTranslationBoneSpaceEiP11CalSkeleton @672
    _ZN16CalHardwareModel4loadEiii @673
    _ZN16CalHardwareModel9addVertexERNS_15CalHardwareMeshEiP14CalCoreSubmeshi @674
    _ZN16CalHardwareModelC1EP12CalCoreModel @675
    _ZN16CalHardwareModelC2EP12CalCoreModel @676
    _ZN16TiXmlDeclaration5ParseEPKcP16TiXmlParsingData @677
    _ZN16TiXmlDeclaration8StreamInEPSiPSs @678
    _ZN16TiXmlDeclarationC1EPKcS1_S1_ @679
    _ZN16TiXmlDeclarationC2EPKcS1_S1_ @680
    _ZN16TiXmlDeclarationD0Ev @681
    _ZN16TiXmlDeclarationD1Ev @682
    _ZN16TiXmlParsingData5StampEPKc @683
    _ZN17CalAnimationCycle5blendEff @684
    _ZN17CalAnimationCycle6updateEf @685
    _ZN17CalAnimationCycle8setAsyncEff @686
    _ZN17CalAnimationCycleC1EP16CalCoreAnimation @687
    _ZN17CalAnimationCycleC2EP16CalCoreAnimation @688
    _ZN17CalAnimationCycleD0Ev @689
    _ZN17CalAnimationCycleD1Ev @690
    _ZN17TiXmlAttributeSet3AddEP14TiXmlAttribute @691
    _ZN17TiXmlAttributeSet6RemoveEP14TiXmlAttribute @692
    _ZN17TiXmlAttributeSetC1Ev @693
    _ZN17TiXmlAttributeSetC2Ev @694
    _ZN17TiXmlAttributeSetD1Ev @695
    _ZN17TiXmlAttributeSetD2Ev @696
    _ZN18CalAnimationAction6updateEf @697
    _ZN18CalAnimationAction7executeEfffb @698
    _ZN18CalAnimationActionC1EP16CalCoreAnimation @699
    _ZN18CalAnimationActionC2EP16CalCoreAnimation @700
    _ZN18CalAnimationActionD0Ev @701
    _ZN18CalAnimationActionD1Ev @702
    _ZN19CalMorphTargetMixer16getCurrentWeightEi @703
    _ZN19CalMorphTargetMixer19getMorphTargetCountEv @704
    _ZN19CalMorphTargetMixer20getCurrentWeightBaseEv @705
    _ZN19CalMorphTargetMixer5blendEiff @706
    _ZN19CalMorphTargetMixer5clearEif @707
    _ZN19CalMorphTargetMixer6updateEf @708
    _ZN19CalMorphTargetMixerC1EP8CalModel @709
    _ZN19CalMorphTargetMixerC2EP8CalModel @710
    _ZN21CalCoreMorphAnimation14addMorphTargetEii @711
    _ZN21CalCoreMorphAnimation19getVectorCoreMeshIDEv @712
    _ZN21CalCoreMorphAnimation22getVectorMorphTargetIDEv @713
    _ZN21CalCoreSubMorphTarget14setBlendVertexEiRKNS_11BlendVertexE @714
    _ZN21CalCoreSubMorphTarget19getBlendVertexCountEv @715
    _ZN21CalCoreSubMorphTarget20getVectorBlendVertexEv @716
    _ZN21CalCoreSubMorphTarget7reserveEi @717
    _ZN48_GLOBAL__N_src_cal3d_error.cpp_6FBE2221_3A7280C315m_lastErrorCodeE @718 DATA
    _ZN48_GLOBAL__N_src_cal3d_error.cpp_6FBE2221_3A7280C315m_lastErrorLineE @719 DATA
    _ZN48_GLOBAL__N_src_cal3d_error.cpp_6FBE2221_3A7280C318m_strLastErrorFileE @720 DATA
    _ZN48_GLOBAL__N_src_cal3d_error.cpp_6FBE2221_3A7280C318m_strLastErrorTextE @721 DATA
    _ZN7CalBone10blendStateEfRK9CalVectorRK13CalQuaternion @722
    _ZN7CalBone10clearStateEv @723
    _ZN7CalBone11getCoreBoneEv @724
    _ZN7CalBone11getRotationEv @725
    _ZN7CalBone11setRotationERK13CalQuaternion @726
    _ZN7CalBone11setSkeletonEP11CalSkeleton @727
    _ZN7CalBone12setCoreStateEv @728
    _ZN7CalBone14calculateStateEv @729
    _ZN7CalBone14getBoundingBoxEv @730
    _ZN7CalBone14getTranslationEv @731
    _ZN7CalBone14setTranslationERK9CalVector @732
    _ZN7CalBone18getTransformMatrixEv @733
    _ZN7CalBone19getRotationAbsoluteEv @734
    _ZN7CalBone20calculateBoundingBoxEv @735
    _ZN7CalBone20getRotationBoneSpaceEv @736
    _ZN7CalBone21setCoreStateRecursiveEv @737
    _ZN7CalBone22getTranslationAbsoluteEv @738
    _ZN7CalBone23getTranslationBoneSpaceEv @739
    _ZN7CalBone9lockStateEv @740
    _ZN7CalBoneC1EP11CalCoreBone @741
    _ZN7CalBoneC2EP11CalCoreBone @742
    _ZN7CalMesh10getSubmeshEi @743
    _ZN7CalMesh11getCoreMeshEv @744
    _ZN7CalMesh11setLodLevelEf @745
    _ZN7CalMesh14setMaterialSetEi @746
    _ZN7CalMesh15getSubmeshCountEv @747
    _ZN7CalMesh16getVectorSubmeshEv @748
    _ZN7CalMesh19disableInternalDataEv @749
    _ZN7CalMesh8setModelEP8CalModel @750
    _ZN7CalMeshC1EP11CalCoreMesh @751
    _ZN7CalMeshC2EP11CalCoreMesh @752
    _ZN7CalMeshD1Ev @753
    _ZN7CalMeshD2Ev @754
    _ZN8CalError12setLastErrorENS_4CodeERKSsiS2_ @755
    _ZN8CalError14printLastErrorEv @756
    _ZN8CalError16getLastErrorCodeEv @757
    _ZN8CalError16getLastErrorFileEv @758
    _ZN8CalError16getLastErrorLineEv @759
    _ZN8CalError16getLastErrorTextEv @760
    _ZN8CalError19getErrorDescriptionENS_4CodeE @761
    _ZN8CalMixer10blendCycleEiff @762
    _ZN8CalMixer10clearCycleEif @763
    _ZN8CalMixer12removeActionEi @764
    _ZN8CalMixer13executeActionEifffb @765
    _ZN8CalMixer13getTimeFactorEv @766
    _ZN8CalMixer13setTimeFactorEf @767
    _ZN8CalMixer14isDefaultMixerEv @768
    _ZN8CalMixer14updateSkeletonEv @769
    _ZN8CalMixer15updateAnimationEf @770
    _ZN8CalMixer16getAnimationTimeEv @771
    _ZN8CalMixer16setAnimationTimeEf @772
    _ZN8CalMixer20getAnimationDurationEv @773
    _ZN8CalMixerC1EP8CalModel @774
    _ZN8CalMixerC2EP8CalModel @775
    _ZN8CalMixerD0Ev @776
    _ZN8CalMixerD1Ev @777
    _ZN8CalMixerD2Ev @778
    _ZN8CalModel10attachMeshEi @779
    _ZN8CalModel10detachMeshEi @780
    _ZN8CalModel11setLodLevelEf @781
    _ZN8CalModel11setUserDataEPv @782
    _ZN8CalModel13getVectorMeshEv @783
    _ZN8CalModel14getBoundingBoxEb @784
    _ZN8CalModel14setMaterialSetEi @785
    _ZN8CalModel16setAbstractMixerEP16CalAbstractMixer @786
    _ZN8CalModel19disableInternalDataEv @787
    _ZN8CalModel6updateEf @788
    _ZN8CalModelC1EP12CalCoreModel @789
    _ZN8CalModelC2EP12CalCoreModel @790
    _ZN8CalModelD1Ev @791
    _ZN8CalModelD2Ev @792
    _ZN8CalPlane11setPositionER9CalVector @793
    _ZN8CalPlane4distER9CalVector @794
    _ZN8CalPlane4evalER9CalVector @795
    _ZN8CalPlane9setNormalER9CalVector @796
    _ZN8CalSaver12saveCoreMeshERKSsP11CalCoreMesh @797
    _ZN8CalSaver13saveCoreBonesERSt14basic_ofstreamIcSt11char_traitsIcEERKSsP11CalCoreBone @798
    _ZN8CalSaver13saveCoreTrackERSt14basic_ofstreamIcSt11char_traitsIcEERKSsP12CalCoreTrack @799
    _ZN8CalSaver15saveCoreSubmeshERSt14basic_ofstreamIcSt11char_traitsIcEERKSsP14CalCoreSubmesh @800
    _ZN8CalSaver15saveXmlCoreMeshERKSsP11CalCoreMesh @801
    _ZN8CalSaver16saveCoreKeyframeERSt14basic_ofstreamIcSt11char_traitsIcEERKSsP15CalCoreKeyframe @802
    _ZN8CalSaver16saveCoreMaterialERKSsP15CalCoreMaterial @803
    _ZN8CalSaver16saveCoreSkeletonERKSsP15CalCoreSkeleton @804
    _ZN8CalSaver17saveCoreAnimationERKSsP16CalCoreAnimation @805
    _ZN8CalSaver19saveXmlCoreMaterialERKSsP15CalCoreMaterial @806
    _ZN8CalSaver19saveXmlCoreSkeletonERKSsP15CalCoreSkeleton @807
    _ZN8CalSaver20saveXmlCoreAnimationERKSsP16CalCoreAnimation @808
    _ZN9CalLoader11loadingModeE @809 DATA
    _ZN9CalLoader12loadCoreMeshEPv @810
    _ZN9CalLoader12loadCoreMeshER13CalDataSource @811
    _ZN9CalLoader12loadCoreMeshERKSs @812
    _ZN9CalLoader12loadCoreMeshERSi @813
    _ZN9CalLoader13loadCoreBonesER13CalDataSource @814
    _ZN9CalLoader13loadCoreTrackER13CalDataSourceP15CalCoreSkeleton @815
    _ZN9CalLoader14setLoadingModeEi @816
    _ZN9CalLoader15loadCoreSubmeshER13CalDataSource @817
    _ZN9CalLoader15loadXmlCoreMeshERKSs @818
    _ZN9CalLoader16loadCoreKeyframeER13CalDataSource @819
    _ZN9CalLoader16loadCoreMaterialEPv @820
    _ZN9CalLoader16loadCoreMaterialER13CalDataSource @821
    _ZN9CalLoader16loadCoreMaterialERKSs @822
    _ZN9CalLoader16loadCoreMaterialERSi @823
    _ZN9CalLoader16loadCoreSkeletonEPv @824
    _ZN9CalLoader16loadCoreSkeletonER13CalDataSource @825
    _ZN9CalLoader16loadCoreSkeletonERKSs @826
    _ZN9CalLoader16loadCoreSkeletonERSi @827
    _ZN9CalLoader17loadCoreAnimationEPvP15CalCoreSkeleton @828
    _ZN9CalLoader17loadCoreAnimationER13CalDataSourceP15CalCoreSkeleton @829
    _ZN9CalLoader17loadCoreAnimationERKSsP15CalCoreSkeleton @830
    _ZN9CalLoader17loadCoreAnimationERSiP15CalCoreSkeleton @831
    _ZN9CalLoader19loadXmlCoreMaterialERKSs @832
    _ZN9CalLoader19loadXmlCoreSkeletonERKSs @833
    _ZN9CalLoader20loadXmlCoreAnimationERKSsP15CalCoreSkeleton @834
    _ZN9CalMatrixC1ERK13CalQuaternion @835
    _ZN9CalMatrixC2ERK13CalQuaternion @836
    _ZN9CalMatrixaSERK13CalQuaternion @837
    _ZN9CalVectormLERK13CalQuaternion @838
    _ZN9TiXmlBase11StringEqualEPKcS1_b @839
    _ZN9TiXmlBase11errorStringE @840 DATA
    _ZN9TiXmlBase14SkipWhiteSpaceEPKc @841
    _ZN9TiXmlBase14StringToBufferC1ERKSs @842
    _ZN9TiXmlBase14StringToBufferC2ERKSs @843
    _ZN9TiXmlBase14StringToBufferD1Ev @844
    _ZN9TiXmlBase14StringToBufferD2Ev @845
    _ZN9TiXmlBase16StreamWhiteSpaceEPSiPSs @846
    _ZN9TiXmlBase18condenseWhiteSpaceE @847 DATA
    _ZN9TiXmlBase6entityE @848 DATA
    _ZN9TiXmlBase8ReadNameEPKcPSs @849
    _ZN9TiXmlBase8ReadTextEPKcPSsbS1_b @850
    _ZN9TiXmlBase8StreamToEPSiiPSs @851
    _ZN9TiXmlBase9GetEntityEPKcPc @852
    _ZN9TiXmlBase9PutStringERKSsPSo @853
    _ZN9TiXmlBase9PutStringERKSsPSs @854
    _ZN9TiXmlBaseD0Ev @855
    _ZN9TiXmlBaseD1Ev @856
    _ZN9TiXmlNode11RemoveChildEPS_ @857
    _ZN9TiXmlNode12LinkEndChildEPS_ @858
    _ZN9TiXmlNode12ReplaceChildEPS_RKS_ @859
    _ZN9TiXmlNode14InsertEndChildERKS_ @860
    _ZN9TiXmlNode16InsertAfterChildEPS_RKS_ @861
    _ZN9TiXmlNode17InsertBeforeChildEPS_RKS_ @862
    _ZN9TiXmlNode5ClearEv @863
    _ZN9TiXmlNode8IdentifyEPKc @864
    _ZN9TiXmlNodeC1ENS_8NodeTypeE @865
    _ZN9TiXmlNodeC2ENS_8NodeTypeE @866
    _ZN9TiXmlNodeD0Ev @867
    _ZN9TiXmlNodeD1Ev @868
    _ZN9TiXmlNodeD2Ev @869
    _ZN9TiXmlText5ParseEPKcP16TiXmlParsingData @870
    _ZN9TiXmlText8StreamInEPSiPSs @871
    _ZN9TiXmlTextC1ERKSs @872
    _ZN9TiXmlTextD0Ev @873
    _ZN9TiXmlTextD1Ev @874
    _ZNK11CalSkeleton15getCoreSkeletonEv @875
    _ZNK11CalSkeleton7getBoneEi @876
    _ZNK11TiXmlHandle10FirstChildEPKc @877
    _ZNK11TiXmlHandle10FirstChildEv @878
    _ZNK11TiXmlHandle12ChildElementEPKci @879
    _ZNK11TiXmlHandle12ChildElementEi @880
    _ZNK11TiXmlHandle17FirstChildElementEPKc @881
    _ZNK11TiXmlHandle17FirstChildElementEv @882
    _ZNK11TiXmlHandle5ChildEPKci @883
    _ZNK11TiXmlHandle5ChildEi @884
    _ZNK12TiXmlComment5CloneEv @885
    _ZNK12TiXmlComment5PrintEP6_iobufi @886
    _ZNK12TiXmlComment9StreamOutEPSo @887
    _ZNK12TiXmlElement17QueryIntAttributeEPKcPi @888
    _ZNK12TiXmlElement20QueryDoubleAttributeEPKcPd @889
    _ZNK12TiXmlElement5CloneEv @890
    _ZNK12TiXmlElement5PrintEP6_iobufi @891
    _ZNK12TiXmlElement9AttributeEPKc @892
    _ZNK12TiXmlElement9AttributeEPKcPd @893
    _ZNK12TiXmlElement9AttributeEPKcPi @894
    _ZNK12TiXmlElement9StreamOutEPSo @895
    _ZNK12TiXmlUnknown5CloneEv @896
    _ZNK12TiXmlUnknown5PrintEP6_iobufi @897
    _ZNK12TiXmlUnknown9StreamOutEPSo @898
    _ZNK13TiXmlDocument5CloneEv @899
    _ZNK13TiXmlDocument5PrintEP6_iobufi @900
    _ZNK13TiXmlDocument8SaveFileEPKc @901
    _ZNK13TiXmlDocument8SaveFileEv @902
    _ZNK13TiXmlDocument9StreamOutEPSo @903
    _ZNK14TiXmlAttribute11DoubleValueEv @904
    _ZNK14TiXmlAttribute13QueryIntValueEPi @905
    _ZNK14TiXmlAttribute16QueryDoubleValueEPd @906
    _ZNK14TiXmlAttribute4NextEv @907
    _ZNK14TiXmlAttribute5PrintEP6_iobufi @908
    _ZNK14TiXmlAttribute8IntValueEv @909
    _ZNK14TiXmlAttribute8PreviousEv @910
    _ZNK14TiXmlAttribute9StreamOutEPSo @911
    _ZNK15CalBufferSource2okEv @912
    _ZNK15CalBufferSource8setErrorEv @913
    _ZNK15CalStreamSource2okEv @914
    _ZNK15CalStreamSource8setErrorEv @915
    _ZNK16TiXmlDeclaration5CloneEv @916
    _ZNK16TiXmlDeclaration5PrintEP6_iobufi @917
    _ZNK16TiXmlDeclaration9StreamOutEPSo @918
    _ZNK17TiXmlAttributeSet4FindEPKc @919
    _ZNK8CalModel11getPhysiqueEv @920
    _ZNK8CalModel11getRendererEv @921
    _ZNK8CalModel11getSkeletonEv @922
    _ZNK8CalModel11getUserDataEv @923
    _ZNK8CalModel12getCoreModelEv @924
    _ZNK8CalModel15getSpringSystemEv @925
    _ZNK8CalModel16getAbstractMixerEv @926
    _ZNK8CalModel19getMorphTargetMixerEv @927
    _ZNK8CalModel7getMeshEi @928
    _ZNK8CalModel8getMixerEv @929
    _ZNK9TiXmlNode10FirstChildEPKc @930
    _ZNK9TiXmlNode11GetDocumentEv @931
    _ZNK9TiXmlNode11NextSiblingEPKc @932
    _ZNK9TiXmlNode15IterateChildrenEPKcPS_ @933
    _ZNK9TiXmlNode15IterateChildrenEPS_ @934
    _ZNK9TiXmlNode15PreviousSiblingEPKc @935
    _ZNK9TiXmlNode17FirstChildElementEPKc @936
    _ZNK9TiXmlNode17FirstChildElementEv @937
    _ZNK9TiXmlNode18NextSiblingElementEPKc @938
    _ZNK9TiXmlNode18NextSiblingElementEv @939
    _ZNK9TiXmlNode4TypeEv @940
    _ZNK9TiXmlNode9LastChildEPKc @941
    _ZNK9TiXmlText5BlankEv @942
    _ZNK9TiXmlText5CloneEv @943
    _ZNK9TiXmlText5PrintEP6_iobufi @944
    _ZNK9TiXmlText9StreamOutEPSo @945
    _ZNKSt6vectorIN14CalCoreSubmesh12TangentSpaceESaIS1_EE4sizeEv @946
    _ZNKSt8_Rb_treeISsSt4pairIKSsiESt10_Select1stIS2_ESt4lessISsESaIS2_EE4findERS1_ @947
    _ZNSs12_S_constructIPcEES0_T_S1_RKSaIcESt20forward_iterator_tag @948
    _ZNSsC1IPcEET_S1_RKSaIcE @949
    _ZNSt10_List_baseIP12CalCoreTrackSaIS1_EE8_M_clearEv @950
    _ZNSt10_List_baseIP17CalAnimationCycleSaIS1_EE8_M_clearEv @951
    _ZNSt10_List_baseIP18CalAnimationActionSaIS1_EE8_M_clearEv @952
    _ZNSt10_List_baseIiSaIiEE8_M_clearEv @953
    _ZNSt4listIP17CalAnimationCycleSaIS1_EE5eraseESt14_List_iteratorIS1_E @954
    _ZNSt4listIP18CalAnimationActionSaIS1_EE5eraseESt14_List_iteratorIS1_E @955
    _ZNSt6vectorI9CalVectorSaIS0_EE14_M_fill_insertEN9__gnu_cxx17__normal_iteratorIPS0_S2_EEjRKS0_ @956
    _ZNSt6vectorI9CalVectorSaIS0_EE5eraseEN9__gnu_cxx17__normal_iteratorIPS0_S2_EES6_ @957
    _ZNSt6vectorI9CalVectorSaIS0_EE7reserveEj @958
    _ZNSt6vectorIN10CalSubmesh12TangentSpaceESaIS1_EE14_M_fill_insertEN9__gnu_cxx17__normal_iteratorIPS1_S3_EEjRKS1_ @959
    _ZNSt6vectorIN10CalSubmesh12TangentSpaceESaIS1_EE5eraseEN9__gnu_cxx17__normal_iteratorIPS1_S3_EES7_ @960
    _ZNSt6vectorIN10CalSubmesh12TangentSpaceESaIS1_EE7reserveEj @961
    _ZNSt6vectorIN10CalSubmesh12TangentSpaceESaIS1_EEaSERKS3_ @962
    _ZNSt6vectorIN10CalSubmesh16PhysicalPropertyESaIS1_EE14_M_fill_insertEN9__gnu_cxx17__normal_iteratorIPS1_S3_EEjRKS1_ @963
    _ZNSt6vectorIN10CalSubmesh16PhysicalPropertyESaIS1_EE5eraseEN9__gnu_cxx17__normal_iteratorIPS1_S3_EES7_ @964
    _ZNSt6vectorIN10CalSubmesh16PhysicalPropertyESaIS1_EE7reserveEj @965
    _ZNSt6vectorIN10CalSubmesh4FaceESaIS1_EE14_M_fill_insertEN9__gnu_cxx17__normal_iteratorIPS1_S3_EEjRKS1_ @966
    _ZNSt6vectorIN10CalSubmesh4FaceESaIS1_EE5eraseEN9__gnu_cxx17__normal_iteratorIPS1_S3_EES7_ @967
    _ZNSt6vectorIN10CalSubmesh4FaceESaIS1_EE7reserveEj @968
    _ZNSt6vectorIN14CalCoreSubmesh12TangentSpaceESaIS1_EE14_M_fill_insertEN9__gnu_cxx17__normal_iteratorIPS1_S3_EEjRKS1_ @969
    _ZNSt6vectorIN14CalCoreSubmesh12TangentSpaceESaIS1_EE5eraseEN9__gnu_cxx17__normal_iteratorIPS1_S3_EES7_ @970
    _ZNSt6vectorIN14CalCoreSubmesh12TangentSpaceESaIS1_EE7reserveEj @971
    _ZNSt6vectorIN14CalCoreSubmesh12TangentSpaceESaIS1_EEaSERKS3_ @972
    _ZNSt6vectorIN14CalCoreSubmesh16PhysicalPropertyESaIS1_EE14_M_fill_insertEN9__gnu_cxx17__normal_iteratorIPS1_S3_EEjRKS1_ @973
    _ZNSt6vectorIN14CalCoreSubmesh16PhysicalPropertyESaIS1_EE5eraseEN9__gnu_cxx17__normal_iteratorIPS1_S3_EES7_ @974
    _ZNSt6vectorIN14CalCoreSubmesh16PhysicalPropertyESaIS1_EE7reserveEj @975
    _ZNSt6vectorIN14CalCoreSubmesh17TextureCoordinateESaIS1_EE14_M_fill_insertEN9__gnu_cxx17__normal_iteratorIPS1_S3_EEjRKS1_ @976
    _ZNSt6vectorIN14CalCoreSubmesh17TextureCoordinateESaIS1_EE5eraseEN9__gnu_cxx17__normal_iteratorIPS1_S3_EES7_ @977
    _ZNSt6vectorIN14CalCoreSubmesh17TextureCoordinateESaIS1_EE7reserveEj @978
    _ZNSt6vectorIN14CalCoreSubmesh17TextureCoordinateESaIS1_EEaSERKS3_ @979
    _ZNSt6vectorIN14CalCoreSubmesh4FaceESaIS1_EE14_M_fill_insertEN9__gnu_cxx17__normal_iteratorIPS1_S3_EEjRKS1_ @980
    _ZNSt6vectorIN14CalCoreSubmesh4FaceESaIS1_EE5eraseEN9__gnu_cxx17__normal_iteratorIPS1_S3_EES7_ @981
    _ZNSt6vectorIN14CalCoreSubmesh4FaceESaIS1_EE7reserveEj @982
    _ZNSt6vectorIN14CalCoreSubmesh6SpringESaIS1_EE14_M_fill_insertEN9__gnu_cxx17__normal_iteratorIPS1_S3_EEjRKS1_ @983
    _ZNSt6vectorIN14CalCoreSubmesh6SpringESaIS1_EE5eraseEN9__gnu_cxx17__normal_iteratorIPS1_S3_EES7_ @984
    _ZNSt6vectorIN14CalCoreSubmesh6SpringESaIS1_EE7reserveEj @985
    _ZNSt6vectorIN14CalCoreSubmesh6VertexESaIS1_EE14_M_fill_insertEN9__gnu_cxx17__normal_iteratorIPS1_S3_EEjRKS1_ @986
    _ZNSt6vectorIN14CalCoreSubmesh6VertexESaIS1_EE5eraseEN9__gnu_cxx17__normal_iteratorIPS1_S3_EES7_ @987
    _ZNSt6vectorIN14CalCoreSubmesh6VertexESaIS1_EE7reserveEj @988
    _ZNSt6vectorIN14CalCoreSubmesh9InfluenceESaIS1_EE14_M_fill_insertEN9__gnu_cxx17__normal_iteratorIPS1_S3_EEjRKS1_ @989
    _ZNSt6vectorIN14CalCoreSubmesh9InfluenceESaIS1_EE5eraseEN9__gnu_cxx17__normal_iteratorIPS1_S3_EES7_ @990
    _ZNSt6vectorIN14CalCoreSubmesh9InfluenceESaIS1_EE7reserveEj @991
    _ZNSt6vectorIN14CalCoreSubmesh9InfluenceESaIS1_EEaSERKS3_ @992
    _ZNSt6vectorIN15CalCoreMaterial3MapESaIS1_EE14_M_fill_insertEN9__gnu_cxx17__normal_iteratorIPS1_S3_EEjRKS1_ @993
    _ZNSt6vectorIN15CalCoreMaterial3MapESaIS1_EE5eraseEN9__gnu_cxx17__normal_iteratorIPS1_S3_EES7_ @994
    _ZNSt6vectorIN15CalCoreMaterial3MapESaIS1_EE7reserveEj @995
    _ZNSt6vectorIN16CalCoreAnimation14CallbackRecordESaIS1_EE13_M_insert_auxEN9__gnu_cxx17__normal_iteratorIPS1_S3_EERKS1_ @996
    _ZNSt6vectorIN16CalCoreAnimation14CallbackRecordESaIS1_EE5eraseEN9__gnu_cxx17__normal_iteratorIPS1_S3_EE @997
    _ZNSt6vectorIN16CalHardwareModel15CalHardwareMeshESaIS1_EE13_M_insert_auxEN9__gnu_cxx17__normal_iteratorIPS1_S3_EERKS1_ @998
    _ZNSt6vectorIN21CalCoreSubMorphTarget11BlendVertexESaIS1_EE14_M_fill_insertEN9__gnu_cxx17__normal_iteratorIPS1_S3_EEjRKS1_ @999
    _ZNSt6vectorIN21CalCoreSubMorphTarget11BlendVertexESaIS1_EE5eraseEN9__gnu_cxx17__normal_iteratorIPS1_S3_EES7_ @1000
    _ZNSt6vectorIN21CalCoreSubMorphTarget11BlendVertexESaIS1_EE7reserveEj @1001
    _ZNSt6vectorIP10CalSubmeshSaIS1_EE13_M_insert_auxEN9__gnu_cxx17__normal_iteratorIPS1_S3_EERKS1_ @1002
    _ZNSt6vectorIP10CalSubmeshSaIS1_EE5eraseEN9__gnu_cxx17__normal_iteratorIPS1_S3_EES7_ @1003
    _ZNSt6vectorIP10CalSubmeshSaIS1_EE7reserveEj @1004
    _ZNSt6vectorIP11CalCoreBoneSaIS1_EE13_M_insert_auxEN9__gnu_cxx17__normal_iteratorIPS1_S3_EERKS1_ @1005
    _ZNSt6vectorIP11CalCoreMeshSaIS1_EE13_M_insert_auxEN9__gnu_cxx17__normal_iteratorIPS1_S3_EERKS1_ @1006
    _ZNSt6vectorIP11CalCoreMeshSaIS1_EE5eraseEN9__gnu_cxx17__normal_iteratorIPS1_S3_EES7_ @1007
    _ZNSt6vectorIP12CalAnimationSaIS1_EE14_M_fill_insertEN9__gnu_cxx17__normal_iteratorIPS1_S3_EEjRKS1_ @1008
    _ZNSt6vectorIP12CalAnimationSaIS1_EE5eraseEN9__gnu_cxx17__normal_iteratorIPS1_S3_EES7_ @1009
    _ZNSt6vectorIP12CalAnimationSaIS1_EE7reserveEj @1010
    _ZNSt6vectorIP14CalCoreSubmeshSaIS1_EE13_M_insert_auxEN9__gnu_cxx17__normal_iteratorIPS1_S3_EERKS1_ @1011
    _ZNSt6vectorIP14CalCoreSubmeshSaIS1_EE5eraseEN9__gnu_cxx17__normal_iteratorIPS1_S3_EES7_ @1012
    _ZNSt6vectorIP15CalCoreKeyframeSaIS1_EE13_M_insert_auxEN9__gnu_cxx17__normal_iteratorIPS1_S3_EERKS1_ @1013
    _ZNSt6vectorIP15CalCoreKeyframeSaIS1_EE5eraseEN9__gnu_cxx17__normal_iteratorIPS1_S3_EES7_ @1014
    _ZNSt6vectorIP15CalCoreMaterialSaIS1_EE13_M_insert_auxEN9__gnu_cxx17__normal_iteratorIPS1_S3_EERKS1_ @1015
    _ZNSt6vectorIP15CalCoreMaterialSaIS1_EE5eraseEN9__gnu_cxx17__normal_iteratorIPS1_S3_EES7_ @1016
    _ZNSt6vectorIP16CalCoreAnimationSaIS1_EE13_M_insert_auxEN9__gnu_cxx17__normal_iteratorIPS1_S3_EERKS1_ @1017
    _ZNSt6vectorIP16CalCoreAnimationSaIS1_EE5eraseEN9__gnu_cxx17__normal_iteratorIPS1_S3_EES7_ @1018
    _ZNSt6vectorIP21CalCoreMorphAnimationSaIS1_EE13_M_insert_auxEN9__gnu_cxx17__normal_iteratorIPS1_S3_EERKS1_ @1019
    _ZNSt6vectorIP21CalCoreMorphAnimationSaIS1_EE5eraseEN9__gnu_cxx17__normal_iteratorIPS1_S3_EES7_ @1020
    _ZNSt6vectorIP21CalCoreSubMorphTargetSaIS1_EE13_M_insert_auxEN9__gnu_cxx17__normal_iteratorIPS1_S3_EERKS1_ @1021
    _ZNSt6vectorIP21CalCoreSubMorphTargetSaIS1_EE5eraseEN9__gnu_cxx17__normal_iteratorIPS1_S3_EES7_ @1022
    _ZNSt6vectorIP7CalBoneSaIS1_EE13_M_insert_auxEN9__gnu_cxx17__normal_iteratorIPS1_S3_EERKS1_ @1023
    _ZNSt6vectorIP7CalBoneSaIS1_EE7reserveEj @1024
    _ZNSt6vectorIP7CalMeshSaIS1_EE13_M_insert_auxEN9__gnu_cxx17__normal_iteratorIPS1_S3_EERKS1_ @1025
    _ZNSt6vectorIP7CalMeshSaIS1_EE5eraseEN9__gnu_cxx17__normal_iteratorIPS1_S3_EE @1026
    _ZNSt6vectorIS_IN10CalSubmesh12TangentSpaceESaIS1_EESaIS3_EE14_M_fill_insertEN9__gnu_cxx17__normal_iteratorIPS3_S5_EEjRKS3_ @1027
    _ZNSt6vectorIS_IN10CalSubmesh12TangentSpaceESaIS1_EESaIS3_EE5eraseEN9__gnu_cxx17__normal_iteratorIPS3_S5_EES9_ @1028
    _ZNSt6vectorIS_IN10CalSubmesh12TangentSpaceESaIS1_EESaIS3_EE7reserveEj @1029
    _ZNSt6vectorIS_IN14CalCoreSubmesh12TangentSpaceESaIS1_EESaIS3_EE14_M_fill_insertEN9__gnu_cxx17__normal_iteratorIPS3_S5_EEjRKS3_ @1030
    _ZNSt6vectorIS_IN14CalCoreSubmesh12TangentSpaceESaIS1_EESaIS3_EE5eraseEN9__gnu_cxx17__normal_iteratorIPS3_S5_EES9_ @1031
    _ZNSt6vectorIS_IN14CalCoreSubmesh12TangentSpaceESaIS1_EESaIS3_EE7reserveEj @1032
    _ZNSt6vectorIS_IN14CalCoreSubmesh17TextureCoordinateESaIS1_EESaIS3_EE14_M_fill_insertEN9__gnu_cxx17__normal_iteratorIPS3_S5_EEjRKS3_ @1033
    _ZNSt6vectorIS_IN14CalCoreSubmesh17TextureCoordinateESaIS1_EESaIS3_EE5eraseEN9__gnu_cxx17__normal_iteratorIPS3_S5_EES9_ @1034
    _ZNSt6vectorIS_IN14CalCoreSubmesh17TextureCoordinateESaIS1_EESaIS3_EE7reserveEj @1035
    _ZNSt6vectorISsSaISsEE13_M_insert_auxEN9__gnu_cxx17__normal_iteratorIPSsS1_EERKSs @1036
    _ZNSt6vectorIfSaIfEE13_M_insert_auxEN9__gnu_cxx17__normal_iteratorIPfS1_EERKf @1037
    _ZNSt6vectorIfSaIfEE14_M_fill_insertEN9__gnu_cxx17__normal_iteratorIPfS1_EEjRKf @1038
    _ZNSt6vectorIfSaIfEE5eraseEN9__gnu_cxx17__normal_iteratorIPfS1_EES5_ @1039
    _ZNSt6vectorIfSaIfEE7reserveEj @1040
    _ZNSt6vectorIiSaIiEE13_M_insert_auxEN9__gnu_cxx17__normal_iteratorIPiS1_EERKi @1041
    _ZNSt6vectorIiSaIiEE14_M_fill_insertEN9__gnu_cxx17__normal_iteratorIPiS1_EEjRKi @1042
    _ZNSt6vectorIiSaIiEE5eraseEN9__gnu_cxx17__normal_iteratorIPiS1_EES5_ @1043
    _ZNSt6vectorIiSaIiEEaSERKS1_ @1044
    _ZNSt8_Rb_treeISsSt4pairIKSsiESt10_Select1stIS2_ESt4lessISsESaIS2_EE11lower_boundERS1_ @1045
    _ZNSt8_Rb_treeISsSt4pairIKSsiESt10_Select1stIS2_ESt4lessISsESaIS2_EE13insert_uniqueERKS2_ @1046
    _ZNSt8_Rb_treeISsSt4pairIKSsiESt10_Select1stIS2_ESt4lessISsESaIS2_EE13insert_uniqueESt17_Rb_tree_iteratorIS2_ERKS2_ @1047
    _ZNSt8_Rb_treeISsSt4pairIKSsiESt10_Select1stIS2_ESt4lessISsESaIS2_EE4findERS1_ @1048
    _ZNSt8_Rb_treeISsSt4pairIKSsiESt10_Select1stIS2_ESt4lessISsESaIS2_EE8_M_eraseEPSt13_Rb_tree_nodeIS2_E @1049
    _ZNSt8_Rb_treeISsSt4pairIKSsiESt10_Select1stIS2_ESt4lessISsESaIS2_EE9_M_insertEPSt18_Rb_tree_node_baseSA_RKS2_ @1050
    _ZNSt8_Rb_treeIiSt4pairIKiSt3mapIiiSt4lessIiESaIS0_IS1_iEEEESt10_Select1stIS8_ES4_SaIS8_EE13insert_uniqueERKS8_ @1051
    _ZNSt8_Rb_treeIiSt4pairIKiSt3mapIiiSt4lessIiESaIS0_IS1_iEEEESt10_Select1stIS8_ES4_SaIS8_EE4findERS1_ @1052
    _ZNSt8_Rb_treeIiSt4pairIKiSt3mapIiiSt4lessIiESaIS0_IS1_iEEEESt10_Select1stIS8_ES4_SaIS8_EE8_M_eraseEPSt13_Rb_tree_nodeIS8_E @1053
    _ZNSt8_Rb_treeIiSt4pairIKiSt3mapIiiSt4lessIiESaIS0_IS1_iEEEESt10_Select1stIS8_ES4_SaIS8_EE9_M_insertEPSt18_Rb_tree_node_baseSE_RKS8_ @1054
    _ZNSt8_Rb_treeIiSt4pairIKiiESt10_Select1stIS2_ESt4lessIiESaIS2_EE11lower_boundERS1_ @1055
    _ZNSt8_Rb_treeIiSt4pairIKiiESt10_Select1stIS2_ESt4lessIiESaIS2_EE11upper_boundERS1_ @1056
    _ZNSt8_Rb_treeIiSt4pairIKiiESt10_Select1stIS2_ESt4lessIiESaIS2_EE13insert_uniqueERKS2_ @1057
    _ZNSt8_Rb_treeIiSt4pairIKiiESt10_Select1stIS2_ESt4lessIiESaIS2_EE4findERS1_ @1058
    _ZNSt8_Rb_treeIiSt4pairIKiiESt10_Select1stIS2_ESt4lessIiESaIS2_EE5eraseERS1_ @1059
    _ZNSt8_Rb_treeIiSt4pairIKiiESt10_Select1stIS2_ESt4lessIiESaIS2_EE5eraseESt17_Rb_tree_iteratorIS2_ESA_ @1060
    _ZNSt8_Rb_treeIiSt4pairIKiiESt10_Select1stIS2_ESt4lessIiESaIS2_EE7_M_copyEPKSt13_Rb_tree_nodeIS2_EPSA_ @1061
    _ZNSt8_Rb_treeIiSt4pairIKiiESt10_Select1stIS2_ESt4lessIiESaIS2_EE8_M_eraseEPSt13_Rb_tree_nodeIS2_E @1062
    _ZNSt8_Rb_treeIiSt4pairIKiiESt10_Select1stIS2_ESt4lessIiESaIS2_EE9_M_insertEPSt18_Rb_tree_node_baseSA_RKS2_ @1063
    _ZSt26__uninitialized_fill_n_auxIN9__gnu_cxx17__normal_iteratorIP9CalVectorSt6vectorIS2_SaIS2_EEEEjS2_ET_S8_T0_RKT1_12__false_type @1064
    _ZSt26__uninitialized_fill_n_auxIN9__gnu_cxx17__normal_iteratorIPN10CalSubmesh12TangentSpaceESt6vectorIS3_SaIS3_EEEEjS3_ET_S9_T0_RKT1_12__false_type @1065
    _ZSt26__uninitialized_fill_n_auxIN9__gnu_cxx17__normal_iteratorIPN10CalSubmesh16PhysicalPropertyESt6vectorIS3_SaIS3_EEEEjS3_ET_S9_T0_RKT1_12__false_type @1066
    _ZSt26__uninitialized_fill_n_auxIN9__gnu_cxx17__normal_iteratorIPN10CalSubmesh4FaceESt6vectorIS3_SaIS3_EEEEjS3_ET_S9_T0_RKT1_12__false_type @1067
    _ZSt26__uninitialized_fill_n_auxIN9__gnu_cxx17__normal_iteratorIPN14CalCoreSubmesh12TangentSpaceESt6vectorIS3_SaIS3_EEEEjS3_ET_S9_T0_RKT1_12__false_type @1068
    _ZSt26__uninitialized_fill_n_auxIN9__gnu_cxx17__normal_iteratorIPN14CalCoreSubmesh16PhysicalPropertyESt6vectorIS3_SaIS3_EEEEjS3_ET_S9_T0_RKT1_12__false_type @1069
    _ZSt26__uninitialized_fill_n_auxIN9__gnu_cxx17__normal_iteratorIPN14CalCoreSubmesh17TextureCoordinateESt6vectorIS3_SaIS3_EEEEjS3_ET_S9_T0_RKT1_12__false_type @1070
    _ZSt26__uninitialized_fill_n_auxIN9__gnu_cxx17__normal_iteratorIPN14CalCoreSubmesh4FaceESt6vectorIS3_SaIS3_EEEEjS3_ET_S9_T0_RKT1_12__false_type @1071
    _ZSt26__uninitialized_fill_n_auxIN9__gnu_cxx17__normal_iteratorIPN14CalCoreSubmesh6SpringESt6vectorIS3_SaIS3_EEEEjS3_ET_S9_T0_RKT1_12__false_type @1072
    _ZSt26__uninitialized_fill_n_auxIN9__gnu_cxx17__normal_iteratorIPN14CalCoreSubmesh6VertexESt6vectorIS3_SaIS3_EEEEjS3_ET_S9_T0_RKT1_12__false_type @1073
    _ZSt26__uninitialized_fill_n_auxIN9__gnu_cxx17__normal_iteratorIPN14CalCoreSubmesh9InfluenceESt6vectorIS3_SaIS3_EEEEjS3_ET_S9_T0_RKT1_12__false_type @1074
    _ZSt26__uninitialized_fill_n_auxIN9__gnu_cxx17__normal_iteratorIPN15CalCoreMaterial3MapESt6vectorIS3_SaIS3_EEEEjS3_ET_S9_T0_RKT1_12__false_type @1075
    _ZSt26__uninitialized_fill_n_auxIN9__gnu_cxx17__normal_iteratorIPN21CalCoreSubMorphTarget11BlendVertexESt6vectorIS3_SaIS3_EEEEjS3_ET_S9_T0_RKT1_12__false_type @1076
    _ZSt26__uninitialized_fill_n_auxIN9__gnu_cxx17__normal_iteratorIPSt6vectorIN10CalSubmesh12TangentSpaceESaIS4_EES2_IS6_SaIS6_EEEEjS6_ET_SB_T0_RKT1_12__false_type @1077
    _ZSt26__uninitialized_fill_n_auxIN9__gnu_cxx17__normal_iteratorIPSt6vectorIN14CalCoreSubmesh12TangentSpaceESaIS4_EES2_IS6_SaIS6_EEEEjS6_ET_SB_T0_RKT1_12__false_type @1078
    _ZSt26__uninitialized_fill_n_auxIN9__gnu_cxx17__normal_iteratorIPSt6vectorIN14CalCoreSubmesh17TextureCoordinateESaIS4_EES2_IS6_SaIS6_EEEEjS6_ET_SB_T0_RKT1_12__false_type @1079
    _ZSt26__uninitialized_fill_n_auxIP9CalVectorjS0_ET_S2_T0_RKT1_12__false_type @1080
    _ZSt26__uninitialized_fill_n_auxIPN10CalSubmesh12TangentSpaceEjS1_ET_S3_T0_RKT1_12__false_type @1081
    _ZSt26__uninitialized_fill_n_auxIPN10CalSubmesh16PhysicalPropertyEjS1_ET_S3_T0_RKT1_12__false_type @1082
    _ZSt26__uninitialized_fill_n_auxIPN10CalSubmesh4FaceEjS1_ET_S3_T0_RKT1_12__false_type @1083
    _ZSt26__uninitialized_fill_n_auxIPN14CalCoreSubmesh12TangentSpaceEjS1_ET_S3_T0_RKT1_12__false_type @1084
    _ZSt26__uninitialized_fill_n_auxIPN14CalCoreSubmesh16PhysicalPropertyEjS1_ET_S3_T0_RKT1_12__false_type @1085
    _ZSt26__uninitialized_fill_n_auxIPN14CalCoreSubmesh17TextureCoordinateEjS1_ET_S3_T0_RKT1_12__false_type @1086
    _ZSt26__uninitialized_fill_n_auxIPN14CalCoreSubmesh4FaceEjS1_ET_S3_T0_RKT1_12__false_type @1087
    _ZSt26__uninitialized_fill_n_auxIPN14CalCoreSubmesh6SpringEjS1_ET_S3_T0_RKT1_12__false_type @1088
    _ZSt26__uninitialized_fill_n_auxIPN14CalCoreSubmesh6VertexEjS1_ET_S3_T0_RKT1_12__false_type @1089
    _ZSt26__uninitialized_fill_n_auxIPN14CalCoreSubmesh9InfluenceEjS1_ET_S3_T0_RKT1_12__false_type @1090
    _ZSt26__uninitialized_fill_n_auxIPN15CalCoreMaterial3MapEjS1_ET_S3_T0_RKT1_12__false_type @1091
    _ZSt26__uninitialized_fill_n_auxIPN21CalCoreSubMorphTarget11BlendVertexEjS1_ET_S3_T0_RKT1_12__false_type @1092
    _ZSt26__uninitialized_fill_n_auxIPSt6vectorIN10CalSubmesh12TangentSpaceESaIS2_EEjS4_ET_S6_T0_RKT1_12__false_type @1093
    _ZSt26__uninitialized_fill_n_auxIPSt6vectorIN14CalCoreSubmesh12TangentSpaceESaIS2_EEjS4_ET_S6_T0_RKT1_12__false_type @1094
    _ZSt26__uninitialized_fill_n_auxIPSt6vectorIN14CalCoreSubmesh17TextureCoordinateESaIS2_EEjS4_ET_S6_T0_RKT1_12__false_type @1095
    _ZSt4fillIN9__gnu_cxx17__normal_iteratorIP9CalVectorSt6vectorIS2_SaIS2_EEEES2_EvT_S8_RKT0_ @1096
    _ZSt4fillIN9__gnu_cxx17__normal_iteratorIPN10CalSubmesh12TangentSpaceESt6vectorIS3_SaIS3_EEEES3_EvT_S9_RKT0_ @1097
    _ZSt4fillIN9__gnu_cxx17__normal_iteratorIPN10CalSubmesh16PhysicalPropertyESt6vectorIS3_SaIS3_EEEES3_EvT_S9_RKT0_ @1098
    _ZSt4fillIN9__gnu_cxx17__normal_iteratorIPN10CalSubmesh4FaceESt6vectorIS3_SaIS3_EEEES3_EvT_S9_RKT0_ @1099
    _ZSt4fillIN9__gnu_cxx17__normal_iteratorIPN14CalCoreSubmesh12TangentSpaceESt6vectorIS3_SaIS3_EEEES3_EvT_S9_RKT0_ @1100
    _ZSt4fillIN9__gnu_cxx17__normal_iteratorIPN14CalCoreSubmesh16PhysicalPropertyESt6vectorIS3_SaIS3_EEEES3_EvT_S9_RKT0_ @1101
    _ZSt4fillIN9__gnu_cxx17__normal_iteratorIPN14CalCoreSubmesh17TextureCoordinateESt6vectorIS3_SaIS3_EEEES3_EvT_S9_RKT0_ @1102
    _ZSt4fillIN9__gnu_cxx17__normal_iteratorIPN14CalCoreSubmesh4FaceESt6vectorIS3_SaIS3_EEEES3_EvT_S9_RKT0_ @1103
    _ZSt4fillIN9__gnu_cxx17__normal_iteratorIPN14CalCoreSubmesh6SpringESt6vectorIS3_SaIS3_EEEES3_EvT_S9_RKT0_ @1104
    _ZSt4fillIN9__gnu_cxx17__normal_iteratorIPN14CalCoreSubmesh6VertexESt6vectorIS3_SaIS3_EEEES3_EvT_S9_RKT0_ @1105
    _ZSt4fillIN9__gnu_cxx17__normal_iteratorIPN14CalCoreSubmesh9InfluenceESt6vectorIS3_SaIS3_EEEES3_EvT_S9_RKT0_ @1106
    _ZSt4fillIN9__gnu_cxx17__normal_iteratorIPN15CalCoreMaterial3MapESt6vectorIS3_SaIS3_EEEES3_EvT_S9_RKT0_ @1107
    _ZSt4fillIN9__gnu_cxx17__normal_iteratorIPN21CalCoreSubMorphTarget11BlendVertexESt6vectorIS3_SaIS3_EEEES3_EvT_S9_RKT0_ @1108
    _ZSt4fillIN9__gnu_cxx17__normal_iteratorIPP12CalAnimationSt6vectorIS3_SaIS3_EEEES3_EvT_S9_RKT0_ @1109
    _ZSt4fillIN9__gnu_cxx17__normal_iteratorIPSt6vectorIN10CalSubmesh12TangentSpaceESaIS4_EES2_IS6_SaIS6_EEEES6_EvT_SB_RKT0_ @1110
    _ZSt4fillIN9__gnu_cxx17__normal_iteratorIPSt6vectorIN14CalCoreSubmesh12TangentSpaceESaIS4_EES2_IS6_SaIS6_EEEES6_EvT_SB_RKT0_ @1111
    _ZSt4fillIN9__gnu_cxx17__normal_iteratorIPSt6vectorIN14CalCoreSubmesh17TextureCoordinateESaIS4_EES2_IS6_SaIS6_EEEES6_EvT_SB_RKT0_ @1112
    _ZSt4fillIN9__gnu_cxx17__normal_iteratorIPfSt6vectorIfSaIfEEEEfEvT_S7_RKT0_ @1113
    _ZSt4fillIN9__gnu_cxx17__normal_iteratorIPiSt6vectorIiSaIiEEEEiEvT_S7_RKT0_ @1114
    _ZSt4fillISt13_Bit_iteratorbEvT_S1_RKT0_ @1115
    _ZSt6fill_nIN9__gnu_cxx17__normal_iteratorIPP12CalAnimationSt6vectorIS3_SaIS3_EEEEjS3_ET_S9_T0_RKT1_ @1116
    _ZSt6fill_nIN9__gnu_cxx17__normal_iteratorIPfSt6vectorIfSaIfEEEEjfET_S7_T0_RKT1_ @1117
    _ZSt6fill_nIN9__gnu_cxx17__normal_iteratorIPiSt6vectorIiSaIiEEEEjiET_S7_T0_RKT1_ @1118
    _ZSt6fill_nIPP12CalAnimationjS1_ET_S3_T0_RKT1_ @1119
    _ZSt6fill_nIPfjfET_S1_T0_RKT1_ @1120
    _ZSt6fill_nIPijiET_S1_T0_RKT1_ @1121
    _ZSt6fill_nISt13_Bit_iteratorjbET_S1_T0_RKT1_ @1122
    _ZTI11CalPlatform @1123 DATA
    _ZTI12CalAnimation @1124 DATA
    _ZTI12TiXmlComment @1125 DATA
    _ZTI12TiXmlElement @1126 DATA
    _ZTI12TiXmlUnknown @1127 DATA
    _ZTI13CalDataSource @1128 DATA
    _ZTI13TiXmlDocument @1129 DATA
    _ZTI14TiXmlAttribute @1130 DATA
    _ZTI15CalBufferSource @1131 DATA
    _ZTI15CalStreamSource @1132 DATA
    _ZTI16CalAbstractMixer @1133 DATA
    _ZTI16TiXmlDeclaration @1134 DATA
    _ZTI17CalAnimationCycle @1135 DATA
    _ZTI18CalAnimationAction @1136 DATA
    _ZTI8CalMixer @1137 DATA
    _ZTI9TiXmlBase @1138 DATA
    _ZTI9TiXmlNode @1139 DATA
    _ZTI9TiXmlText @1140 DATA
    _ZTS11CalPlatform @1141 DATA
    _ZTS12CalAnimation @1142 DATA
    _ZTS12TiXmlComment @1143 DATA
    _ZTS12TiXmlElement @1144 DATA
    _ZTS12TiXmlUnknown @1145 DATA
    _ZTS13CalDataSource @1146 DATA
    _ZTS13TiXmlDocument @1147 DATA
    _ZTS14TiXmlAttribute @1148 DATA
    _ZTS15CalBufferSource @1149 DATA
    _ZTS15CalStreamSource @1150 DATA
    _ZTS16CalAbstractMixer @1151 DATA
    _ZTS16TiXmlDeclaration @1152 DATA
    _ZTS17CalAnimationCycle @1153 DATA
    _ZTS18CalAnimationAction @1154 DATA
    _ZTS8CalMixer @1155 DATA
    _ZTS9TiXmlBase @1156 DATA
    _ZTS9TiXmlNode @1157 DATA
    _ZTS9TiXmlText @1158 DATA
    _ZTV11CalPlatform @1159 DATA
    _ZTV12CalAnimation @1160 DATA
    _ZTV12TiXmlComment @1161 DATA
    _ZTV12TiXmlElement @1162 DATA
    _ZTV12TiXmlUnknown @1163 DATA
    _ZTV13CalDataSource @1164 DATA
    _ZTV13TiXmlDocument @1165 DATA
    _ZTV14TiXmlAttribute @1166 DATA
    _ZTV15CalBufferSource @1167 DATA
    _ZTV15CalStreamSource @1168 DATA
    _ZTV16CalAbstractMixer @1169 DATA
    _ZTV16TiXmlDeclaration @1170 DATA
    _ZTV17CalAnimationCycle @1171 DATA
    _ZTV18CalAnimationAction @1172 DATA
    _ZTV8CalMixer @1173 DATA
    _ZTV9TiXmlBase @1174 DATA
    _ZTV9TiXmlNode @1175 DATA
    _ZTV9TiXmlText @1176 DATA
    _ZlsRSoRK9TiXmlNode @1177
    _ZlsRSsRK9TiXmlNode @1178
    _ZrsRSiR9TiXmlNode @1179
